target datalayout = "e-m:e-p270:32:32-p271:32:32-p272:64:64-i64:64-i128:128-f80:128-n8:16:32:64-S128"
target triple = "x86_64-pc-linux-gnu"

%class.PhaseIdealLoop = type <{ %class.PhaseTransform, %class.Node_List, ptr, ptr, ptr, i32, [4 x i8], ptr, i8, [7 x i8], %class.Node_List, %class.Node_List, %class.GrowableArray, i32, i32, ptr, ptr, ptr, i32, i8, [3 x i8], i32, i8, [3 x i8] }>
%class.PhaseTransform = type { ptr, %class.Phase }
%class.Phase = type { i32, ptr }
%class.Node_List = type <{ %class.Node_Array, i32, [4 x i8] }>
%class.Node_Array = type { ptr, i32, ptr }
%class.GrowableArray = type { %class.GrowableArrayWithAllocator, %class.GrowableArrayMetadata }
%class.GrowableArrayWithAllocator = type { %class.GrowableArrayView }
%class.GrowableArrayView = type { %class.GrowableArrayBase, ptr }
%class.GrowableArrayBase = type { i32, i32 }
%class.GrowableArrayMetadata = type { i64 }
%class.Node = type <{ ptr, ptr, ptr, i32, i32, i32, i32, i32, i32, i32, [4 x i8] }>
%class.PhaseIterGVN = type { %class.PhaseGVN, i8, ptr }
%class.PhaseGVN = type { %class.PhaseValues }
%class.PhaseValues = type { %class.PhaseTransform, i8, ptr, ptr, [137 x ptr], [137 x ptr], [20 x ptr] }
%class.VectorSet = type { i32, ptr, i32, ptr }
%class.Unique_Node_List = type <{ %class.Node_List.base, [4 x i8], %class.VectorSet, i32, [4 x i8] }>
%class.Node_List.base = type <{ %class.Node_Array, i32 }>
%class.TemplateAssertionPredicateExpression = type { ptr }

@g_assert_poison = external global ptr, align 8
@.str.7 = private unnamed_addr constant [36 x i8] c"src/hotspot/share/opto/loopnode.hpp\00", align 1
@.str.8 = private unnamed_addr constant [31 x i8] c"guarantee(d != nullptr) failed\00", align 1
@.str.9 = private unnamed_addr constant [21 x i8] c"Null dominator info.\00", align 1
@.str.10 = private unnamed_addr constant [39 x i8] c"guarantee(d->_idx < _idom_size) failed\00", align 1
@.str.11 = private unnamed_addr constant [1 x i8] zeroinitializer, align 1

; Function Attrs: mustprogress nounwind uwtable
define linkonce_odr hidden void @_ZN10Node_Array3mapEjP4Node(ptr noundef nonnull align 8 dereferenceable(24) %0, i32 noundef %1, ptr noundef %2) #1 comdat align 2 {
  %4 = alloca ptr, align 8
  %5 = alloca i32, align 4
  %6 = alloca ptr, align 8
  store ptr %0, ptr %4, align 8
  store i32 %1, ptr %5, align 4
  store ptr %2, ptr %6, align 8
  %7 = load ptr, ptr %4, align 8
  %8 = load i32, ptr %5, align 4
  %9 = getelementptr inbounds %class.Node_Array, ptr %7, i32 0, i32 1
  %10 = load i32, ptr %9, align 8
  %11 = icmp uge i32 %8, %10
  br i1 %11, label %12, label %14

12:                                               ; preds = %3
  %13 = load i32, ptr %5, align 4
  call void @_ZN10Node_Array4growEj(ptr noundef nonnull align 8 dereferenceable(24) %7, i32 noundef %13)
  br label %14

14:                                               ; preds = %12, %3
  %15 = load ptr, ptr %6, align 8
  %16 = getelementptr inbounds %class.Node_Array, ptr %7, i32 0, i32 2
  %17 = load ptr, ptr %16, align 8
  %18 = load i32, ptr %5, align 4
  %19 = zext i32 %18 to i64
  %20 = getelementptr inbounds ptr, ptr %17, i64 %19
  store ptr %15, ptr %20, align 8
  ret void
}

; Function Attrs: mustprogress nounwind uwtable
define linkonce_odr hidden void @_ZN9Node_List4pushEP4Node(ptr noundef nonnull align 8 dereferenceable(28) %0, ptr noundef %1) #1 comdat align 2 {
  %3 = alloca ptr, align 8
  %4 = alloca ptr, align 8
  store ptr %0, ptr %3, align 8
  store ptr %1, ptr %4, align 8
  %5 = load ptr, ptr %3, align 8
  %6 = getelementptr inbounds %class.Node_List, ptr %5, i32 0, i32 1
  %7 = load i32, ptr %6, align 8
  %8 = add i32 %7, 1
  store i32 %8, ptr %6, align 8
  %9 = load ptr, ptr %4, align 8
  call void @_ZN10Node_Array3mapEjP4Node(ptr noundef nonnull align 8 dereferenceable(24) %5, i32 noundef %7, ptr noundef %9)
  ret void
}

; Function Attrs: mustprogress nounwind uwtable
define linkonce_odr hidden noundef zeroext i1 @_ZN9VectorSet8test_setEj(ptr noundef nonnull align 8 dereferenceable(32) %0, i32 noundef %1) #1 comdat align 2 {
  %3 = alloca ptr, align 8
  %4 = alloca i32, align 4
  %5 = alloca i32, align 4
  %6 = alloca i32, align 4
  %7 = alloca i32, align 4
  store ptr %0, ptr %3, align 8
  store i32 %1, ptr %4, align 4
  %8 = load ptr, ptr %3, align 8
  %9 = load i32, ptr %4, align 4
  %10 = lshr i32 %9, 5
  store i32 %10, ptr %5, align 4
  %11 = load i32, ptr %5, align 4
  %12 = getelementptr inbounds %class.VectorSet, ptr %8, i32 0, i32 0
  %13 = load i32, ptr %12, align 8
  %14 = icmp uge i32 %11, %13
  br i1 %14, label %15, label %17

15:                                               ; preds = %2
  %16 = load i32, ptr %5, align 4
  call void @_ZN9VectorSet4growEj(ptr noundef nonnull align 8 dereferenceable(32) %8, i32 noundef %16)
  br label %17

17:                                               ; preds = %15, %2
  %18 = load i32, ptr %4, align 4
  %19 = and i32 %18, 31
  %20 = shl i32 1, %19
  store i32 %20, ptr %6, align 4
  %21 = getelementptr inbounds %class.VectorSet, ptr %8, i32 0, i32 1
  %22 = load ptr, ptr %21, align 8
  %23 = load i32, ptr %5, align 4
  %24 = zext i32 %23 to i64
  %25 = getelementptr inbounds i32, ptr %22, i64 %24
  %26 = load i32, ptr %25, align 4
  store i32 %26, ptr %7, align 4
  %27 = load i32, ptr %7, align 4
  %28 = load i32, ptr %6, align 4
  %29 = or i32 %27, %28
  %30 = getelementptr inbounds %class.VectorSet, ptr %8, i32 0, i32 1
  %31 = load ptr, ptr %30, align 8
  %32 = load i32, ptr %5, align 4
  %33 = zext i32 %32 to i64
  %34 = getelementptr inbounds i32, ptr %31, i64 %33
  store i32 %29, ptr %34, align 4
  %35 = load i32, ptr %7, align 4
  %36 = load i32, ptr %6, align 4
  %37 = and i32 %35, %36
  %38 = icmp ne i32 %37, 0
  ret i1 %38
}

; Function Attrs: mustprogress nounwind uwtable
define linkonce_odr hidden void @_ZN16Unique_Node_List4pushEP4Node(ptr noundef nonnull align 8 dereferenceable(68) %0, ptr noundef %1) #1 comdat align 2 {
  %3 = alloca ptr, align 8
  %4 = alloca ptr, align 8
  store ptr %0, ptr %3, align 8
  store ptr %1, ptr %4, align 8
  %5 = load ptr, ptr %3, align 8
  %6 = getelementptr inbounds %class.Unique_Node_List, ptr %5, i32 0, i32 2
  %7 = load ptr, ptr %4, align 8
  %8 = getelementptr inbounds %class.Node, ptr %7, i32 0, i32 7
  %9 = load i32, ptr %8, align 8
  %10 = call noundef zeroext i1 @_ZN9VectorSet8test_setEj(ptr noundef nonnull align 8 dereferenceable(32) %6, i32 noundef %9)
  br i1 %10, label %13, label %11

11:                                               ; preds = %2
  %12 = load ptr, ptr %4, align 8
  call void @_ZN9Node_List4pushEP4Node(ptr noundef nonnull align 8 dereferenceable(28) %5, ptr noundef %12)
  br label %13

13:                                               ; preds = %11, %2
  ret void
}

; Function Attrs: mustprogress nounwind uwtable
define linkonce_odr hidden noundef zeroext i1 @_ZN11PhaseValues11hash_deleteEP4Node(ptr noundef nonnull align 8 dereferenceable(2400) %0, ptr noundef %1) #1 comdat align 2 {
  %3 = alloca ptr, align 8
  %4 = alloca ptr, align 8
  store ptr %0, ptr %3, align 8
  store ptr %1, ptr %4, align 8
  %5 = load ptr, ptr %3, align 8
  %6 = getelementptr inbounds %class.PhaseValues, ptr %5, i32 0, i32 2
  %7 = load ptr, ptr %6, align 8
  %8 = load ptr, ptr %4, align 8
  %9 = call noundef zeroext i1 @_ZN8NodeHash11hash_deleteEPK4Node(ptr noundef nonnull align 8 dereferenceable(40) %7, ptr noundef %8)
  ret i1 %9
}

; Function Attrs: mustprogress nounwind uwtable
define linkonce_odr hidden void @_ZN12PhaseIterGVN19rehash_node_delayedEP4Node(ptr noundef nonnull align 8 dereferenceable(2416) %0, ptr noundef %1) #1 comdat align 2 {
  %3 = alloca ptr, align 8
  %4 = alloca ptr, align 8
  store ptr %0, ptr %3, align 8
  store ptr %1, ptr %4, align 8
  %5 = load ptr, ptr %3, align 8
  %6 = load ptr, ptr %4, align 8
  %7 = call noundef zeroext i1 @_ZN11PhaseValues11hash_deleteEP4Node(ptr noundef nonnull align 8 dereferenceable(2400) %5, ptr noundef %6)
  %8 = getelementptr inbounds %class.PhaseIterGVN, ptr %5, i32 0, i32 2
  %9 = load ptr, ptr %8, align 8
  %10 = load ptr, ptr %4, align 8
  call void @_ZN16Unique_Node_List4pushEP4Node(ptr noundef nonnull align 8 dereferenceable(68) %9, ptr noundef %10)
  ret void
}

; Function Attrs: mustprogress nounwind uwtable
define linkonce_odr hidden noundef i32 @_ZNK14PhaseIdealLoop9dom_depthEP4Node(ptr noundef nonnull align 8 dereferenceable(237) %0, ptr noundef %1) #1 comdat align 2 {
  %3 = alloca ptr, align 8
  %4 = alloca ptr, align 8
  store ptr %0, ptr %3, align 8
  store ptr %1, ptr %4, align 8
  %5 = load ptr, ptr %3, align 8
  br label %6

6:                                                ; preds = %2
  %7 = load ptr, ptr %4, align 8
  %8 = icmp ne ptr %7, null
  br i1 %8, label %11, label %9

9:                                                ; preds = %6
  %10 = load ptr, ptr @g_assert_poison, align 8
  store i8 88, ptr %10, align 1
  call void (ptr, i32, ptr, ptr, ...) @_Z15report_vm_errorPKciS0_S0_z(ptr noundef @.str.7, i32 noundef 1162, ptr noundef @.str.8, ptr noundef @.str.9) #7
  unreachable

11:                                               ; preds = %6
  br label %12

12:                                               ; preds = %11
  br label %13

13:                                               ; preds = %12
  %14 = load ptr, ptr %4, align 8
  %15 = getelementptr inbounds %class.Node, ptr %14, i32 0, i32 7
  %16 = load i32, ptr %15, align 8
  %17 = getelementptr inbounds %class.PhaseIdealLoop, ptr %5, i32 0, i32 14
  %18 = load i32, ptr %17, align 4
  %19 = icmp ult i32 %16, %18
  br i1 %19, label %22, label %20

20:                                               ; preds = %13
  %21 = load ptr, ptr @g_assert_poison, align 8
  store i8 88, ptr %21, align 1
  call void (ptr, i32, ptr, ptr, ...) @_Z15report_vm_errorPKciS0_S0_z(ptr noundef @.str.7, i32 noundef 1163, ptr noundef @.str.10, ptr noundef @.str.11) #7
  unreachable

22:                                               ; preds = %13
  br label %23

23:                                               ; preds = %22
  %24 = getelementptr inbounds %class.PhaseIdealLoop, ptr %5, i32 0, i32 16
  %25 = load ptr, ptr %24, align 8
  %26 = load ptr, ptr %4, align 8
  %27 = getelementptr inbounds %class.Node, ptr %26, i32 0, i32 7
  %28 = load i32, ptr %27, align 8
  %29 = zext i32 %28 to i64
  %30 = getelementptr inbounds i32, ptr %25, i64 %29
  %31 = load i32, ptr %30, align 4
  ret i32 %31
}

; Function Attrs: mustprogress nounwind uwtable
define linkonce_odr hidden void @_ZN12PhaseIterGVN16replace_input_ofEP4NodejS1_(ptr noundef nonnull align 8 dereferenceable(2416) %0, ptr noundef %1, i32 noundef %2, ptr noundef %3) #1 comdat align 2 {
  %5 = alloca ptr, align 8
  %6 = alloca ptr, align 8
  %7 = alloca i32, align 4
  %8 = alloca ptr, align 8
  store ptr %0, ptr %5, align 8
  store ptr %1, ptr %6, align 8
  store i32 %2, ptr %7, align 4
  store ptr %3, ptr %8, align 8
  %9 = load ptr, ptr %5, align 8
  %10 = load ptr, ptr %6, align 8
  call void @_ZN12PhaseIterGVN19rehash_node_delayedEP4Node(ptr noundef nonnull align 8 dereferenceable(2416) %9, ptr noundef %10)
  %11 = load ptr, ptr %6, align 8
  %12 = load i32, ptr %7, align 4
  %13 = load ptr, ptr %8, align 8
  call void @_ZN4Node9set_req_XEjPS_P12PhaseIterGVN(ptr noundef nonnull align 8 dereferenceable(52) %11, i32 noundef %12, ptr noundef %13, ptr noundef %9)
  ret void
}

; Function Attrs: mustprogress nounwind uwtable
define linkonce_odr hidden void @_ZN36TemplateAssertionPredicateExpressionC2EP11Opaque4Node(ptr noundef nonnull align 8 dereferenceable(8) %0, ptr noundef %1) unnamed_addr #1 comdat align 2 {
  %3 = alloca ptr, align 8
  %4 = alloca ptr, align 8
  store ptr %0, ptr %3, align 8
  store ptr %1, ptr %4, align 8
  %5 = load ptr, ptr %3, align 8
  %6 = getelementptr inbounds %class.TemplateAssertionPredicateExpression, ptr %5, i32 0, i32 0
  %7 = load ptr, ptr %4, align 8
  store ptr %7, ptr %6, align 8
  ret void
}

; Function Attrs: mustprogress nounwind uwtable
define linkonce_odr hidden noundef ptr @_ZNK4Node10as_Opaque4Ev(ptr noundef nonnull align 8 dereferenceable(52) %0) #1 comdat align 2 {
  %2 = alloca ptr, align 8
  store ptr %0, ptr %2, align 8
  %3 = load ptr, ptr %2, align 8
  ret ptr %3
}

; Function Attrs: mustprogress nounwind uwtable
define linkonce_odr hidden noundef ptr @_ZNK4Node2inEj(ptr noundef nonnull align 8 dereferenceable(52) %0, i32 noundef %1) #1 comdat align 2 {
  %3 = alloca ptr, align 8
  %4 = alloca i32, align 4
  store ptr %0, ptr %3, align 8
  store i32 %1, ptr %4, align 4
  %5 = load ptr, ptr %3, align 8
  %6 = getelementptr inbounds %class.Node, ptr %5, i32 0, i32 1
  %7 = load ptr, ptr %6, align 8
  %8 = load i32, ptr %4, align 4
  %9 = zext i32 %8 to i64
  %10 = getelementptr inbounds ptr, ptr %7, i64 %9
  %11 = load ptr, ptr %10, align 8
  ret ptr %11
}

; Function Attrs: mustprogress nounwind uwtable
define hidden noundef ptr @_ZN14PhaseIdealLoop46clone_assertion_predicate_for_unswitched_loopsEP6IfNodeP10IfProjNodeN14Deoptimization11DeoptReasonEP10IfTrueNode(ptr noundef nonnull align 8 dereferenceable(237) %0, ptr noundef %1, ptr noundef %2, i32 noundef %3, ptr noundef %4) #1 align 2 {
  %6 = alloca ptr, align 8
  %7 = alloca ptr, align 8
  %8 = alloca ptr, align 8
  %9 = alloca i32, align 4
  %10 = alloca ptr, align 8
  %11 = alloca %class.TemplateAssertionPredicateExpression, align 8
  %12 = alloca ptr, align 8
  %13 = alloca ptr, align 8
  store ptr %0, ptr %6, align 8
  store ptr %1, ptr %7, align 8
  store ptr %2, ptr %8, align 8
  store i32 %3, ptr %9, align 4
  store ptr %4, ptr %10, align 8
  %14 = load ptr, ptr %6, align 8
  %15 = load ptr, ptr %7, align 8
  %16 = call noundef ptr @_ZNK4Node2inEj(ptr noundef nonnull align 8 dereferenceable(52) %15, i32 noundef 1)
  %17 = call noundef ptr @_ZNK4Node10as_Opaque4Ev(ptr noundef nonnull align 8 dereferenceable(52) %16)
  call void @_ZN36TemplateAssertionPredicateExpressionC2EP11Opaque4Node(ptr noundef nonnull align 8 dereferenceable(8) %11, ptr noundef %17)
  %18 = load ptr, ptr %10, align 8
  %19 = call noundef ptr @_ZNK4Node2inEj(ptr noundef nonnull align 8 dereferenceable(52) %18, i32 noundef 0)
  %20 = call noundef ptr @_ZNK4Node2inEj(ptr noundef nonnull align 8 dereferenceable(52) %19, i32 noundef 0)
  %21 = call noundef ptr @_ZN36TemplateAssertionPredicateExpression5cloneEP4NodeP14PhaseIdealLoop(ptr noundef nonnull align 8 dereferenceable(8) %11, ptr noundef %20, ptr noundef %14)
  store ptr %21, ptr %12, align 8
  %22 = load ptr, ptr %10, align 8
  %23 = load i32, ptr %9, align 4
  %24 = load ptr, ptr %7, align 8
  %25 = load ptr, ptr %24, align 8
  %26 = getelementptr inbounds ptr, ptr %25, i64 0
  %27 = load ptr, ptr %26, align 8
  %28 = call noundef i32 %27(ptr noundef nonnull align 8 dereferenceable(60) %24)
  %29 = call noundef ptr @_ZN14PhaseIdealLoop27create_new_if_for_predicateEP10IfTrueNodeP4NodeN14Deoptimization11DeoptReasonEib(ptr noundef nonnull align 8 dereferenceable(237) %14, ptr noundef %22, ptr noundef null, i32 noundef %23, i32 noundef %28, i1 noundef zeroext false)
  store ptr %29, ptr %13, align 8
  %30 = getelementptr inbounds %class.PhaseIdealLoop, ptr %14, i32 0, i32 2
  %31 = load ptr, ptr %30, align 8
  %32 = load ptr, ptr %13, align 8
  %33 = call noundef ptr @_ZNK4Node2inEj(ptr noundef nonnull align 8 dereferenceable(52) %32, i32 noundef 0)
  %34 = load ptr, ptr %12, align 8
  call void @_ZN12PhaseIterGVN16replace_input_ofEP4NodejS1_(ptr noundef nonnull align 8 dereferenceable(2416) %31, ptr noundef %33, i32 noundef 1, ptr noundef %34)
  %35 = getelementptr inbounds %class.PhaseIdealLoop, ptr %14, i32 0, i32 2
  %36 = load ptr, ptr %35, align 8
  %37 = load ptr, ptr %10, align 8
  %38 = call noundef ptr @_ZNK4Node2inEj(ptr noundef nonnull align 8 dereferenceable(52) %37, i32 noundef 0)
  %39 = load ptr, ptr %13, align 8
  call void @_ZN12PhaseIterGVN16replace_input_ofEP4NodejS1_(ptr noundef nonnull align 8 dereferenceable(2416) %36, ptr noundef %38, i32 noundef 0, ptr noundef %39)
  %40 = load ptr, ptr %10, align 8
  %41 = call noundef ptr @_ZNK4Node2inEj(ptr noundef nonnull align 8 dereferenceable(52) %40, i32 noundef 0)
  %42 = load ptr, ptr %13, align 8
  %43 = load ptr, ptr %13, align 8
  %44 = call noundef i32 @_ZNK14PhaseIdealLoop9dom_depthEP4Node(ptr noundef nonnull align 8 dereferenceable(237) %14, ptr noundef %43)
  call void @_ZN14PhaseIdealLoop8set_idomEP4NodeS1_j(ptr noundef nonnull align 8 dereferenceable(237) %14, ptr noundef %41, ptr noundef %42, i32 noundef %44)
  %45 = load ptr, ptr %13, align 8
  ret ptr %45
}