; Function Attrs: mustprogress nounwind uwtable
define hidden noundef ptr @_ZN14PhaseIdealLoop46clone_assertion_predicate_for_unswitched_loopsEP6IfNodeP10IfProjNodeN14Deoptimization11DeoptReasonEP10IfTrueNode(ptr noundef nonnull align 8 dereferenceable(237) %0, ptr noundef %1, ptr nocapture readnone %2, i32 noundef %3, ptr nocapture noundef readonly %4) local_unnamed_addr #0 align 2 {
  %6 = alloca %class.TemplateAssertionPredicateExpression, align 8
  %7 = getelementptr inbounds i8, ptr %1, i64 8
  %8 = load ptr, ptr %7, align 8
  %9 = getelementptr inbounds i8, ptr %8, i64 8
  %10 = load ptr, ptr %9, align 8
  store ptr %10, ptr %6, align 8
  %11 = getelementptr inbounds i8, ptr %4, i64 8
  %12 = load ptr, ptr %11, align 8
  %13 = load ptr, ptr %12, align 8
  %14 = getelementptr inbounds i8, ptr %13, i64 8
  %15 = load ptr, ptr %14, align 8
  %16 = load ptr, ptr %15, align 8
  %17 = call noundef ptr @_ZN36TemplateAssertionPredicateExpression5cloneEP4NodeP14PhaseIdealLoop(ptr noundef nonnull align 8 dereferenceable(8) %6, ptr noundef %16, ptr noundef nonnull %0) #8
  %18 = load ptr, ptr %1, align 8
  %19 = load ptr, ptr %18, align 8
  %20 = call noundef i32 %19(ptr noundef nonnull align 8 dereferenceable(60) %1) #8
  %21 = call noundef ptr @_ZN14PhaseIdealLoop27create_new_if_for_predicateEP10IfTrueNodeP4NodeN14Deoptimization11DeoptReasonEib(ptr noundef nonnull align 8 dereferenceable(237) %0, ptr noundef nonnull %4, ptr noundef null, i32 noundef %3, i32 noundef %20, i1 noundef zeroext false)
  %22 = getelementptr inbounds i8, ptr %0, i64 56
  %23 = load ptr, ptr %22, align 8
  %24 = getelementptr inbounds i8, ptr %21, i64 8
  %25 = load ptr, ptr %24, align 8
  %26 = load ptr, ptr %25, align 8
  %27 = getelementptr inbounds i8, ptr %23, i64 32
  %28 = load ptr, ptr %27, align 8
  %29 = call noundef zeroext i1 @_ZN8NodeHash11hash_deleteEPK4Node(ptr noundef nonnull align 8 dereferenceable(40) %28, ptr noundef %26) #8
  %30 = getelementptr inbounds i8, ptr %23, i64 2408
  %31 = load ptr, ptr %30, align 8
  %32 = getelementptr inbounds i8, ptr %31, i64 32
  %33 = getelementptr inbounds i8, ptr %26, i64 40
  %34 = load i32, ptr %33, align 8
  %35 = lshr i32 %34, 5
  %36 = load i32, ptr %32, align 8
  %.not.i.i.i.i = icmp ult i32 %35, %36
  br i1 %.not.i.i.i.i, label %_ZN9VectorSet8test_setEj.exit.i.i.i, label %37

37:                                               ; preds = %5
  call void @_ZN9VectorSet4growEj(ptr noundef nonnull align 8 dereferenceable(32) %32, i32 noundef %35) #8
  br label %_ZN9VectorSet8test_setEj.exit.i.i.i

_ZN9VectorSet8test_setEj.exit.i.i.i:              ; preds = %37, %5
  %38 = and i32 %34, 31
  %39 = shl nuw i32 1, %38
  %40 = getelementptr inbounds i8, ptr %31, i64 40
  %41 = load ptr, ptr %40, align 8
  %42 = zext nneg i32 %35 to i64
  %43 = getelementptr inbounds i32, ptr %41, i64 %42
  %44 = load i32, ptr %43, align 4
  %45 = or i32 %44, %39
  store i32 %45, ptr %43, align 4
  %46 = and i32 %44, %39
  %.not.i.i.i = icmp eq i32 %46, 0
  br i1 %.not.i.i.i, label %47, label %_ZN12PhaseIterGVN16replace_input_ofEP4NodejS1_.exit

47:                                               ; preds = %_ZN9VectorSet8test_setEj.exit.i.i.i
  %48 = getelementptr inbounds i8, ptr %31, i64 24
  %49 = load i32, ptr %48, align 8
  %50 = add i32 %49, 1
  store i32 %50, ptr %48, align 8
  %51 = getelementptr inbounds i8, ptr %31, i64 8
  %52 = load i32, ptr %51, align 8
  %.not.i.i.i.i.i = icmp ugt i32 %52, %49
  br i1 %.not.i.i.i.i.i, label %_ZN9Node_List4pushEP4Node.exit.i.i.i, label %53

53:                                               ; preds = %47
  call void @_ZN10Node_Array4growEj(ptr noundef nonnull align 8 dereferenceable(24) %31, i32 noundef %49) #8
  br label %_ZN9Node_List4pushEP4Node.exit.i.i.i

_ZN9Node_List4pushEP4Node.exit.i.i.i:             ; preds = %53, %47
  %54 = getelementptr inbounds i8, ptr %31, i64 16
  %55 = load ptr, ptr %54, align 8
  %56 = zext i32 %49 to i64
  %57 = getelementptr inbounds ptr, ptr %55, i64 %56
  store ptr %26, ptr %57, align 8
  br label %_ZN12PhaseIterGVN16replace_input_ofEP4NodejS1_.exit

_ZN12PhaseIterGVN16replace_input_ofEP4NodejS1_.exit: ; preds = %_ZN9VectorSet8test_setEj.exit.i.i.i, %_ZN9Node_List4pushEP4Node.exit.i.i.i
  call void @_ZN4Node9set_req_XEjPS_P12PhaseIterGVN(ptr noundef nonnull align 8 dereferenceable(52) %26, i32 noundef 1, ptr noundef %17, ptr noundef nonnull %23) #8
  %58 = load ptr, ptr %22, align 8
  %59 = load ptr, ptr %11, align 8
  %60 = load ptr, ptr %59, align 8
  %61 = getelementptr inbounds i8, ptr %58, i64 32
  %62 = load ptr, ptr %61, align 8
  %63 = call noundef zeroext i1 @_ZN8NodeHash11hash_deleteEPK4Node(ptr noundef nonnull align 8 dereferenceable(40) %62, ptr noundef %60) #8
  %64 = getelementptr inbounds i8, ptr %58, i64 2408
  %65 = load ptr, ptr %64, align 8
  %66 = getelementptr inbounds i8, ptr %65, i64 32
  %67 = getelementptr inbounds i8, ptr %60, i64 40
  %68 = load i32, ptr %67, align 8
  %69 = lshr i32 %68, 5
  %70 = load i32, ptr %66, align 8
  %.not.i.i.i.i13 = icmp ult i32 %69, %70
  br i1 %.not.i.i.i.i13, label %_ZN9VectorSet8test_setEj.exit.i.i.i14, label %71

71:                                               ; preds = %_ZN12PhaseIterGVN16replace_input_ofEP4NodejS1_.exit
  call void @_ZN9VectorSet4growEj(ptr noundef nonnull align 8 dereferenceable(32) %66, i32 noundef %69) #8
  br label %_ZN9VectorSet8test_setEj.exit.i.i.i14

_ZN9VectorSet8test_setEj.exit.i.i.i14:            ; preds = %71, %_ZN12PhaseIterGVN16replace_input_ofEP4NodejS1_.exit
  %72 = and i32 %68, 31
  %73 = shl nuw i32 1, %72
  %74 = getelementptr inbounds i8, ptr %65, i64 40
  %75 = load ptr, ptr %74, align 8
  %76 = zext nneg i32 %69 to i64
  %77 = getelementptr inbounds i32, ptr %75, i64 %76
  %78 = load i32, ptr %77, align 4
  %79 = or i32 %78, %73
  store i32 %79, ptr %77, align 4
  %80 = and i32 %78, %73
  %.not.i.i.i15 = icmp eq i32 %80, 0
  br i1 %.not.i.i.i15, label %81, label %92

81:                                               ; preds = %_ZN9VectorSet8test_setEj.exit.i.i.i14
  %82 = getelementptr inbounds i8, ptr %65, i64 24
  %83 = load i32, ptr %82, align 8
  %84 = add i32 %83, 1
  store i32 %84, ptr %82, align 8
  %85 = getelementptr inbounds i8, ptr %65, i64 8
  %86 = load i32, ptr %85, align 8
  %.not.i.i.i.i.i16 = icmp ugt i32 %86, %83
  br i1 %.not.i.i.i.i.i16, label %_ZN9Node_List4pushEP4Node.exit.i.i.i17, label %87

87:                                               ; preds = %81
  call void @_ZN10Node_Array4growEj(ptr noundef nonnull align 8 dereferenceable(24) %65, i32 noundef %83) #8
  br label %_ZN9Node_List4pushEP4Node.exit.i.i.i17

_ZN9Node_List4pushEP4Node.exit.i.i.i17:           ; preds = %87, %81
  %88 = getelementptr inbounds i8, ptr %65, i64 16
  %89 = load ptr, ptr %88, align 8
  %90 = zext i32 %83 to i64
  %91 = getelementptr inbounds ptr, ptr %89, i64 %90
  store ptr %60, ptr %91, align 8
  br label %92

92:                                               ; preds = %_ZN9Node_List4pushEP4Node.exit.i.i.i17, %_ZN9VectorSet8test_setEj.exit.i.i.i14
  call void @_ZN4Node9set_req_XEjPS_P12PhaseIterGVN(ptr noundef nonnull align 8 dereferenceable(52) %60, i32 noundef 0, ptr noundef nonnull %21, ptr noundef nonnull %58) #8
  %93 = getelementptr inbounds i8, ptr %21, i64 40
  %94 = load i32, ptr %93, align 8
  %95 = getelementptr inbounds i8, ptr %0, i64 196
  %96 = load i32, ptr %95, align 4
  %97 = icmp ult i32 %94, %96
  br i1 %97, label %_ZNK14PhaseIdealLoop9dom_depthEP4Node.exit, label %98

98:                                               ; preds = %92
  %99 = load ptr, ptr @g_assert_poison, align 8
  store i8 88, ptr %99, align 1
  call void (ptr, i32, ptr, ptr, ...) @_Z15report_vm_errorPKciS0_S0_z(ptr noundef nonnull @.str.7, i32 noundef 1163, ptr noundef nonnull @.str.10, ptr noundef nonnull @.str.11) #9
  unreachable

_ZNK14PhaseIdealLoop9dom_depthEP4Node.exit:       ; preds = %92
  %100 = load ptr, ptr %11, align 8
  %101 = load ptr, ptr %100, align 8
  %102 = getelementptr inbounds i8, ptr %0, i64 208
  %103 = load ptr, ptr %102, align 8
  %104 = zext i32 %94 to i64
  %105 = getelementptr inbounds i32, ptr %103, i64 %104
  %106 = load i32, ptr %105, align 4
  call void @_ZN14PhaseIdealLoop8set_idomEP4NodeS1_j(ptr noundef nonnull align 8 dereferenceable(237) %0, ptr noundef %101, ptr noundef nonnull %21, i32 noundef %106) #8
  ret ptr %21
}